target datalayout = "e-m:e-p270:32:32-p271:32:32-p272:64:64-i64:64-i128:128-f80:128-n8:16:32:64-S128"
target triple = "x86_64-unknown-linux-gnu"

%"class.boost::detail::shared_count" = type { ptr }
%"class.QuantLib::DayCounter" = type { %"class.boost::shared_ptr.16" }
%"class.boost::shared_ptr.16" = type { ptr, %"class.boost::detail::shared_count" }
%"class.QuantLib::Date" = type { i64 }
%"class.QuantLib::Schedule" = type { %"class.boost::optional", %"class.QuantLib::Calendar", i32, %"class.boost::optional.52", %"class.boost::optional.53", %"class.boost::optional.55", %"class.QuantLib::Date", %"class.QuantLib::Date", %"class.std::vector.30", %"class.std::vector.57" }
%"class.boost::optional" = type { %"class.boost::optional_detail::optional_base" }
%"class.boost::optional_detail::optional_base" = type { i8, [3 x i8], %"class.boost::optional_detail::aligned_storage" }
%"class.boost::optional_detail::aligned_storage" = type { %"union.boost::optional_detail::aligned_storage<QuantLib::Period>::dummy_u" }
%"union.boost::optional_detail::aligned_storage<QuantLib::Period>::dummy_u" = type { [8 x i8] }
%"class.QuantLib::Calendar" = type { %"class.boost::shared_ptr.17" }
%"class.boost::shared_ptr.17" = type { ptr, %"class.boost::detail::shared_count" }
%"class.boost::optional.52" = type { %"class.boost::optional_detail::tc_optional_base" }
%"class.boost::optional_detail::tc_optional_base" = type { i8, i32 }
%"class.boost::optional.53" = type { %"class.boost::optional_detail::tc_optional_base.54" }
%"class.boost::optional_detail::tc_optional_base.54" = type { i8, i32 }
%"class.boost::optional.55" = type { %"class.boost::optional_detail::tc_optional_base.56" }
%"class.boost::optional_detail::tc_optional_base.56" = type { i8, i8 }
%"class.std::vector.30" = type { %"struct.std::_Vector_base.31" }
%"struct.std::_Vector_base.31" = type { %"struct.std::_Vector_base<QuantLib::Date, std::allocator<QuantLib::Date>>::_Vector_impl" }
%"struct.std::_Vector_base<QuantLib::Date, std::allocator<QuantLib::Date>>::_Vector_impl" = type { %"struct.std::_Vector_base<QuantLib::Date, std::allocator<QuantLib::Date>>::_Vector_impl_data" }
%"struct.std::_Vector_base<QuantLib::Date, std::allocator<QuantLib::Date>>::_Vector_impl_data" = type { ptr, ptr, ptr }
%"class.std::vector.57" = type { %"struct.std::_Bvector_base" }
%"struct.std::_Bvector_base" = type { %"struct.std::_Bvector_base<std::allocator<bool>>::_Bvector_impl" }
%"struct.std::_Bvector_base<std::allocator<bool>>::_Bvector_impl" = type { %"struct.std::_Bvector_base<std::allocator<bool>>::_Bvector_impl_data" }
%"struct.std::_Bvector_base<std::allocator<bool>>::_Bvector_impl_data" = type { %"struct.std::_Bit_iterator", %"struct.std::_Bit_iterator", ptr }
%"struct.std::_Bit_iterator" = type { %"struct.std::_Bit_iterator_base.base", [4 x i8] }
%"struct.std::_Bit_iterator_base.base" = type <{ ptr, i32 }>
%"class.QuantLib::Period" = type { i32, i32 }
%"class.std::vector.35" = type { %"struct.std::_Vector_base.36" }
%"struct.std::_Vector_base.36" = type { %"struct.std::_Vector_base<double, std::allocator<double>>::_Vector_impl" }
%"struct.std::_Vector_base<double, std::allocator<double>>::_Vector_impl" = type { %"struct.std::_Vector_base<double, std::allocator<double>>::_Vector_impl_data" }
%"struct.std::_Vector_base<double, std::allocator<double>>::_Vector_impl_data" = type { ptr, ptr, ptr }
%"class.boost::shared_ptr.51" = type { ptr, %"class.boost::detail::shared_count" }
%"class.QuantLib::SubPeriodsLeg" = type <{ %"class.QuantLib::Schedule", %"class.boost::shared_ptr.51", %"class.std::vector.35", %"class.QuantLib::DayCounter", %"class.QuantLib::Calendar", i32, i32, %"class.std::vector.62", %"class.std::vector.35", %"class.std::vector.35", %"class.std::vector.35", i32, %"class.QuantLib::Period", [4 x i8], %"class.QuantLib::Calendar", i32, i8, [3 x i8] }>
%"class.std::vector.62" = type { %"struct.std::_Vector_base.63" }
%"struct.std::_Vector_base.63" = type { %"struct.std::_Vector_base<unsigned int, std::allocator<unsigned int>>::_Vector_impl" }
%"struct.std::_Vector_base<unsigned int, std::allocator<unsigned int>>::_Vector_impl" = type { %"struct.std::_Vector_base<unsigned int, std::allocator<unsigned int>>::_Vector_impl_data" }
%"struct.std::_Vector_base<unsigned int, std::allocator<unsigned int>>::_Vector_impl_data" = type { ptr, ptr, ptr }
%"class.boost::detail::sp_counted_base" = type { ptr, i32, i32 }

; Function Attrs: mustprogress uwtable
define linkonce_odr void @_ZN5boost6detail15sp_counted_base12weak_releaseEv(ptr noundef nonnull align 8 dereferenceable(16) %this) #2 comdat align 2 {
entry:
  %this.addr = alloca ptr, align 8
  store ptr %this, ptr %this.addr, align 8, !tbaa !3
  %this1 = load ptr, ptr %this.addr, align 8
  %weak_count_ = getelementptr inbounds nuw %"class.boost::detail::sp_counted_base", ptr %this1, i32 0, i32 2
  %call = call noundef i32 @_ZN5boost6detail16atomic_decrementEPj(ptr noundef %weak_count_)
  %cmp = icmp eq i32 %call, 1
  br i1 %cmp, label %if.then, label %if.end

if.then:                                          ; preds = %entry
  %vtable = load ptr, ptr %this1, align 8, !tbaa !20
  %vfn = getelementptr inbounds ptr, ptr %vtable, i64 3
  %0 = load ptr, ptr %vfn, align 8
  call void %0(ptr noundef nonnull align 8 dereferenceable(16) %this1)
  br label %if.end

if.end:                                           ; preds = %if.then, %entry
  ret void
}

; Function Attrs: inlinehint mustprogress nounwind uwtable
define linkonce_odr noundef i32 @_ZN5boost6detail16atomic_decrementEPj(ptr noundef %pw) #5 comdat {
entry:
  %pw.addr = alloca ptr, align 8
  %.atomictmp = alloca i32, align 4
  %atomic-temp = alloca i32, align 4
  store ptr %pw, ptr %pw.addr, align 8, !tbaa !3
  %0 = load ptr, ptr %pw.addr, align 8, !tbaa !3
  store i32 1, ptr %.atomictmp, align 4, !tbaa !32
  %1 = load i32, ptr %.atomictmp, align 4
  %2 = atomicrmw sub ptr %0, i32 %1 acq_rel, align 4
  store i32 %2, ptr %atomic-temp, align 4
  %3 = load i32, ptr %atomic-temp, align 4, !tbaa !32
  ret i32 %3
}

; Function Attrs: inlinehint mustprogress nounwind uwtable
define linkonce_odr void @_ZN5boost6detail16atomic_incrementEPj(ptr noundef %pw) #5 comdat {
entry:
  %pw.addr = alloca ptr, align 8
  %.atomictmp = alloca i32, align 4
  %atomic-temp = alloca i32, align 4
  store ptr %pw, ptr %pw.addr, align 8, !tbaa !3
  %0 = load ptr, ptr %pw.addr, align 8, !tbaa !3
  store i32 1, ptr %.atomictmp, align 4, !tbaa !32
  %1 = load i32, ptr %.atomictmp, align 4
  %2 = atomicrmw add ptr %0, i32 %1 monotonic, align 4
  store i32 %2, ptr %atomic-temp, align 4
  ret void
}

; Function Attrs: mustprogress uwtable
define linkonce_odr void @_ZN5boost6detail15sp_counted_base7releaseEv(ptr noundef nonnull align 8 dereferenceable(16) %this) #2 comdat align 2 {
entry:
  %this.addr = alloca ptr, align 8
  store ptr %this, ptr %this.addr, align 8, !tbaa !3
  %this1 = load ptr, ptr %this.addr, align 8
  %use_count_ = getelementptr inbounds nuw %"class.boost::detail::sp_counted_base", ptr %this1, i32 0, i32 1
  %call = call noundef i32 @_ZN5boost6detail16atomic_decrementEPj(ptr noundef %use_count_)
  %cmp = icmp eq i32 %call, 1
  br i1 %cmp, label %if.then, label %if.end

if.then:                                          ; preds = %entry
  %vtable = load ptr, ptr %this1, align 8, !tbaa !20
  %vfn = getelementptr inbounds ptr, ptr %vtable, i64 2
  %0 = load ptr, ptr %vfn, align 8
  call void %0(ptr noundef nonnull align 8 dereferenceable(16) %this1)
  call void @_ZN5boost6detail15sp_counted_base12weak_releaseEv(ptr noundef nonnull align 8 dereferenceable(16) %this1)
  br label %if.end

if.end:                                           ; preds = %if.then, %entry
  ret void
}

; Function Attrs: mustprogress uwtable
define linkonce_odr void @_ZN5boost6detail15sp_counted_base12add_ref_copyEv(ptr noundef nonnull align 8 dereferenceable(16) %this) #2 comdat align 2 {
entry:
  %this.addr = alloca ptr, align 8
  store ptr %this, ptr %this.addr, align 8, !tbaa !3
  %this1 = load ptr, ptr %this.addr, align 8
  %use_count_ = getelementptr inbounds nuw %"class.boost::detail::sp_counted_base", ptr %this1, i32 0, i32 1
  call void @_ZN5boost6detail16atomic_incrementEPj(ptr noundef %use_count_)
  ret void
}

; Function Attrs: mustprogress nounwind uwtable
define linkonce_odr void @_ZN5boost6detail12shared_countD2Ev(ptr noundef nonnull align 8 dereferenceable(8) %this) unnamed_addr #1 comdat align 2 personality ptr @__gxx_personality_v0 {
entry:
  %this.addr = alloca ptr, align 8
  store ptr %this, ptr %this.addr, align 8, !tbaa !3
  %this1 = load ptr, ptr %this.addr, align 8
  %pi_ = getelementptr inbounds nuw %"class.boost::detail::shared_count", ptr %this1, i32 0, i32 0
  %0 = load ptr, ptr %pi_, align 8, !tbaa !179
  %cmp = icmp ne ptr %0, null
  br i1 %cmp, label %if.then, label %if.end

if.then:                                          ; preds = %entry
  %pi_2 = getelementptr inbounds nuw %"class.boost::detail::shared_count", ptr %this1, i32 0, i32 0
  %1 = load ptr, ptr %pi_2, align 8, !tbaa !179
  invoke void @_ZN5boost6detail15sp_counted_base7releaseEv(ptr noundef nonnull align 8 dereferenceable(16) %1)
          to label %invoke.cont unwind label %terminate.lpad

invoke.cont:                                      ; preds = %if.then
  br label %if.end

if.end:                                           ; preds = %invoke.cont, %entry
  ret void

terminate.lpad:                                   ; preds = %if.then
  %2 = landingpad { ptr, i32 }
          catch ptr null
  %3 = extractvalue { ptr, i32 } %2, 0
  call void @__clang_call_terminate(ptr %3) #24
  unreachable
}

; Function Attrs: mustprogress nounwind uwtable
define linkonce_odr void @_ZN5boost6detail12shared_count4swapERS1_(ptr noundef nonnull align 8 dereferenceable(8) %this, ptr noundef nonnull align 8 dereferenceable(8) %r) #1 comdat align 2 {
entry:
  %this.addr = alloca ptr, align 8
  %r.addr = alloca ptr, align 8
  %tmp = alloca ptr, align 8
  store ptr %this, ptr %this.addr, align 8, !tbaa !3
  store ptr %r, ptr %r.addr, align 8, !tbaa !3
  %this1 = load ptr, ptr %this.addr, align 8
  call void @llvm.lifetime.start.p0(i64 8, ptr %tmp) #18
  %0 = load ptr, ptr %r.addr, align 8, !tbaa !3
  %pi_ = getelementptr inbounds nuw %"class.boost::detail::shared_count", ptr %0, i32 0, i32 0
  %1 = load ptr, ptr %pi_, align 8, !tbaa !179
  store ptr %1, ptr %tmp, align 8, !tbaa !3
  %pi_2 = getelementptr inbounds nuw %"class.boost::detail::shared_count", ptr %this1, i32 0, i32 0
  %2 = load ptr, ptr %pi_2, align 8, !tbaa !179
  %3 = load ptr, ptr %r.addr, align 8, !tbaa !3
  %pi_3 = getelementptr inbounds nuw %"class.boost::detail::shared_count", ptr %3, i32 0, i32 0
  store ptr %2, ptr %pi_3, align 8, !tbaa !179
  %4 = load ptr, ptr %tmp, align 8, !tbaa !3
  %pi_4 = getelementptr inbounds nuw %"class.boost::detail::shared_count", ptr %this1, i32 0, i32 0
  store ptr %4, ptr %pi_4, align 8, !tbaa !179
  call void @llvm.lifetime.end.p0(i64 8, ptr %tmp) #18
  ret void
}

; Function Attrs: inlinehint mustprogress nounwind uwtable
define linkonce_odr void @_ZSt4swapIPN8QuantLib8Calendar4ImplEENSt9enable_ifIXsr6__and_ISt6__not_ISt15__is_tuple_likeIT_EESt21is_move_constructibleIS7_ESt18is_move_assignableIS7_EEE5valueEvE4typeERS7_SG_(ptr noundef nonnull align 8 dereferenceable(8) %__a, ptr noundef nonnull align 8 dereferenceable(8) %__b) #5 comdat {
entry:
  %__a.addr = alloca ptr, align 8
  %__b.addr = alloca ptr, align 8
  %__tmp = alloca ptr, align 8
  store ptr %__a, ptr %__a.addr, align 8, !tbaa !3
  store ptr %__b, ptr %__b.addr, align 8, !tbaa !3
  call void @llvm.lifetime.start.p0(i64 8, ptr %__tmp) #18
  %0 = load ptr, ptr %__a.addr, align 8, !tbaa !3
  %1 = load ptr, ptr %0, align 8, !tbaa !3
  store ptr %1, ptr %__tmp, align 8, !tbaa !3
  %2 = load ptr, ptr %__b.addr, align 8, !tbaa !3
  %3 = load ptr, ptr %2, align 8, !tbaa !3
  %4 = load ptr, ptr %__a.addr, align 8, !tbaa !3
  store ptr %3, ptr %4, align 8, !tbaa !3
  %5 = load ptr, ptr %__tmp, align 8, !tbaa !3
  %6 = load ptr, ptr %__b.addr, align 8, !tbaa !3
  store ptr %5, ptr %6, align 8, !tbaa !3
  call void @llvm.lifetime.end.p0(i64 8, ptr %__tmp) #18
  ret void
}

; Function Attrs: mustprogress nounwind uwtable
define linkonce_odr void @_ZN5boost6detail12shared_countC2ERKS1_(ptr noundef nonnull align 8 dereferenceable(8) %this, ptr noundef nonnull align 8 dereferenceable(8) %r) unnamed_addr #1 comdat align 2 personality ptr @__gxx_personality_v0 {
entry:
  %this.addr = alloca ptr, align 8
  %r.addr = alloca ptr, align 8
  store ptr %this, ptr %this.addr, align 8, !tbaa !3
  store ptr %r, ptr %r.addr, align 8, !tbaa !3
  %this1 = load ptr, ptr %this.addr, align 8
  %pi_ = getelementptr inbounds nuw %"class.boost::detail::shared_count", ptr %this1, i32 0, i32 0
  %0 = load ptr, ptr %r.addr, align 8, !tbaa !3
  %pi_2 = getelementptr inbounds nuw %"class.boost::detail::shared_count", ptr %0, i32 0, i32 0
  %1 = load ptr, ptr %pi_2, align 8, !tbaa !179
  store ptr %1, ptr %pi_, align 8, !tbaa !179
  %pi_3 = getelementptr inbounds nuw %"class.boost::detail::shared_count", ptr %this1, i32 0, i32 0
  %2 = load ptr, ptr %pi_3, align 8, !tbaa !179
  %cmp = icmp ne ptr %2, null
  br i1 %cmp, label %if.then, label %if.end

if.then:                                          ; preds = %entry
  %pi_4 = getelementptr inbounds nuw %"class.boost::detail::shared_count", ptr %this1, i32 0, i32 0
  %3 = load ptr, ptr %pi_4, align 8, !tbaa !179
  invoke void @_ZN5boost6detail15sp_counted_base12add_ref_copyEv(ptr noundef nonnull align 8 dereferenceable(16) %3)
          to label %invoke.cont unwind label %terminate.lpad

invoke.cont:                                      ; preds = %if.then
  br label %if.end

if.end:                                           ; preds = %invoke.cont, %entry
  ret void

terminate.lpad:                                   ; preds = %if.then
  %4 = landingpad { ptr, i32 }
          catch ptr null
  %5 = extractvalue { ptr, i32 } %4, 0
  call void @__clang_call_terminate(ptr %5) #24
  unreachable
}

; Function Attrs: inlinehint mustprogress nounwind uwtable
define linkonce_odr void @_ZN5boost10shared_ptrIN8QuantLib8Calendar4ImplEED2Ev(ptr noundef nonnull align 8 dereferenceable(16) %this) unnamed_addr #5 comdat align 2 {
entry:
  %this.addr = alloca ptr, align 8
  store ptr %this, ptr %this.addr, align 8, !tbaa !3
  %this1 = load ptr, ptr %this.addr, align 8
  %pn = getelementptr inbounds nuw %"class.boost::shared_ptr.17", ptr %this1, i32 0, i32 1
  call void @_ZN5boost6detail12shared_countD2Ev(ptr noundef nonnull align 8 dereferenceable(8) %pn) #18
  ret void
}

; Function Attrs: mustprogress nounwind uwtable
define linkonce_odr void @_ZN5boost10shared_ptrIN8QuantLib8Calendar4ImplEE4swapERS4_(ptr noundef nonnull align 8 dereferenceable(16) %this, ptr noundef nonnull align 8 dereferenceable(16) %other) #1 comdat align 2 {
entry:
  %this.addr = alloca ptr, align 8
  %other.addr = alloca ptr, align 8
  store ptr %this, ptr %this.addr, align 8, !tbaa !3
  store ptr %other, ptr %other.addr, align 8, !tbaa !3
  %this1 = load ptr, ptr %this.addr, align 8
  %px = getelementptr inbounds nuw %"class.boost::shared_ptr.17", ptr %this1, i32 0, i32 0
  %0 = load ptr, ptr %other.addr, align 8, !tbaa !3
  %px2 = getelementptr inbounds nuw %"class.boost::shared_ptr.17", ptr %0, i32 0, i32 0
  call void @_ZSt4swapIPN8QuantLib8Calendar4ImplEENSt9enable_ifIXsr6__and_ISt6__not_ISt15__is_tuple_likeIT_EESt21is_move_constructibleIS7_ESt18is_move_assignableIS7_EEE5valueEvE4typeERS7_SG_(ptr noundef nonnull align 8 dereferenceable(8) %px, ptr noundef nonnull align 8 dereferenceable(8) %px2) #18
  %pn = getelementptr inbounds nuw %"class.boost::shared_ptr.17", ptr %this1, i32 0, i32 1
  %1 = load ptr, ptr %other.addr, align 8, !tbaa !3
  %pn3 = getelementptr inbounds nuw %"class.boost::shared_ptr.17", ptr %1, i32 0, i32 1
  call void @_ZN5boost6detail12shared_count4swapERS1_(ptr noundef nonnull align 8 dereferenceable(8) %pn, ptr noundef nonnull align 8 dereferenceable(8) %pn3) #18
  ret void
}

; Function Attrs: mustprogress nounwind uwtable
define linkonce_odr void @_ZN5boost10shared_ptrIN8QuantLib8Calendar4ImplEEC2ERKS4_(ptr noundef nonnull align 8 dereferenceable(16) %this, ptr noundef nonnull align 8 dereferenceable(16) %r) unnamed_addr #1 comdat align 2 {
entry:
  %this.addr = alloca ptr, align 8
  %r.addr = alloca ptr, align 8
  store ptr %this, ptr %this.addr, align 8, !tbaa !3
  store ptr %r, ptr %r.addr, align 8, !tbaa !3
  %this1 = load ptr, ptr %this.addr, align 8
  %px = getelementptr inbounds nuw %"class.boost::shared_ptr.17", ptr %this1, i32 0, i32 0
  %0 = load ptr, ptr %r.addr, align 8, !tbaa !3
  %px2 = getelementptr inbounds nuw %"class.boost::shared_ptr.17", ptr %0, i32 0, i32 0
  %1 = load ptr, ptr %px2, align 8, !tbaa !187
  store ptr %1, ptr %px, align 8, !tbaa !187
  %pn = getelementptr inbounds nuw %"class.boost::shared_ptr.17", ptr %this1, i32 0, i32 1
  %2 = load ptr, ptr %r.addr, align 8, !tbaa !3
  %pn3 = getelementptr inbounds nuw %"class.boost::shared_ptr.17", ptr %2, i32 0, i32 1
  call void @_ZN5boost6detail12shared_countC2ERKS1_(ptr noundef nonnull align 8 dereferenceable(8) %pn, ptr noundef nonnull align 8 dereferenceable(8) %pn3) #18
  ret void
}

; Function Attrs: mustprogress nounwind uwtable
define linkonce_odr noundef nonnull align 8 dereferenceable(16) ptr @_ZN5boost10shared_ptrIN8QuantLib8Calendar4ImplEEaSERKS4_(ptr noundef nonnull align 8 dereferenceable(16) %this, ptr noundef nonnull align 8 dereferenceable(16) %r) #1 comdat align 2 {
entry:
  %this.addr = alloca ptr, align 8
  %r.addr = alloca ptr, align 8
  %ref.tmp = alloca %"class.boost::shared_ptr.17", align 8
  store ptr %this, ptr %this.addr, align 8, !tbaa !3
  store ptr %r, ptr %r.addr, align 8, !tbaa !3
  %this1 = load ptr, ptr %this.addr, align 8
  call void @llvm.lifetime.start.p0(i64 16, ptr %ref.tmp) #18
  %0 = load ptr, ptr %r.addr, align 8, !tbaa !3
  call void @_ZN5boost10shared_ptrIN8QuantLib8Calendar4ImplEEC2ERKS4_(ptr noundef nonnull align 8 dereferenceable(16) %ref.tmp, ptr noundef nonnull align 8 dereferenceable(16) %0) #18
  call void @_ZN5boost10shared_ptrIN8QuantLib8Calendar4ImplEE4swapERS4_(ptr noundef nonnull align 8 dereferenceable(16) %ref.tmp, ptr noundef nonnull align 8 dereferenceable(16) %this1) #18
  call void @_ZN5boost10shared_ptrIN8QuantLib8Calendar4ImplEED2Ev(ptr noundef nonnull align 8 dereferenceable(16) %ref.tmp) #18
  call void @llvm.lifetime.end.p0(i64 16, ptr %ref.tmp) #18
  ret ptr %this1
}

; Function Attrs: inlinehint mustprogress nounwind uwtable
define linkonce_odr noundef nonnull align 8 dereferenceable(16) ptr @_ZN8QuantLib8CalendaraSERKS0_(ptr noundef nonnull align 8 dereferenceable(16) %this, ptr noundef nonnull align 8 dereferenceable(16) %0) #5 comdat align 2 {
entry:
  %this.addr = alloca ptr, align 8
  %.addr = alloca ptr, align 8
  store ptr %this, ptr %this.addr, align 8, !tbaa !3
  store ptr %0, ptr %.addr, align 8, !tbaa !3
  %this1 = load ptr, ptr %this.addr, align 8
  %impl_ = getelementptr inbounds nuw %"class.QuantLib::Calendar", ptr %this1, i32 0, i32 0
  %1 = load ptr, ptr %.addr, align 8, !tbaa !3
  %impl_2 = getelementptr inbounds nuw %"class.QuantLib::Calendar", ptr %1, i32 0, i32 0
  %call = call noundef nonnull align 8 dereferenceable(16) ptr @_ZN5boost10shared_ptrIN8QuantLib8Calendar4ImplEEaSERKS4_(ptr noundef nonnull align 8 dereferenceable(16) %impl_, ptr noundef nonnull align 8 dereferenceable(16) %impl_2) #18
  ret ptr %this1
}

; Function Attrs: mustprogress nounwind uwtable
define noundef nonnull align 8 dereferenceable(349) ptr @_ZN8QuantLib13SubPeriodsLeg18withExCouponPeriodERKNS_6PeriodERKNS_8CalendarENS_21BusinessDayConventionEb(ptr noundef nonnull align 8 dereferenceable(349) %this, ptr noundef nonnull align 4 dereferenceable(8) %period, ptr noundef nonnull align 8 dereferenceable(16) %cal, i32 noundef %convention, i1 noundef zeroext %endOfMonth) #1 align 2 {
entry:
  %this.addr = alloca ptr, align 8
  %period.addr = alloca ptr, align 8
  %cal.addr = alloca ptr, align 8
  %convention.addr = alloca i32, align 4
  %endOfMonth.addr = alloca i8, align 1
  store ptr %this, ptr %this.addr, align 8, !tbaa !3
  store ptr %period, ptr %period.addr, align 8, !tbaa !3
  store ptr %cal, ptr %cal.addr, align 8, !tbaa !3
  store i32 %convention, ptr %convention.addr, align 4, !tbaa !147
  %storedv = zext i1 %endOfMonth to i8
  store i8 %storedv, ptr %endOfMonth.addr, align 1, !tbaa !107
  %this1 = load ptr, ptr %this.addr, align 8
  %0 = load ptr, ptr %period.addr, align 8, !tbaa !3
  %exCouponPeriod_ = getelementptr inbounds nuw %"class.QuantLib::SubPeriodsLeg", ptr %this1, i32 0, i32 12
  call void @llvm.memcpy.p0.p0.i64(ptr align 4 %exCouponPeriod_, ptr align 4 %0, i64 8, i1 false), !tbaa.struct !71
  %1 = load ptr, ptr %cal.addr, align 8, !tbaa !3
  %exCouponCalendar_ = getelementptr inbounds nuw %"class.QuantLib::SubPeriodsLeg", ptr %this1, i32 0, i32 14
  %call = call noundef nonnull align 8 dereferenceable(16) ptr @_ZN8QuantLib8CalendaraSERKS0_(ptr noundef nonnull align 8 dereferenceable(16) %exCouponCalendar_, ptr noundef nonnull align 8 dereferenceable(16) %1) #18
  %2 = load i32, ptr %convention.addr, align 4, !tbaa !147
  %exCouponAdjustment_ = getelementptr inbounds nuw %"class.QuantLib::SubPeriodsLeg", ptr %this1, i32 0, i32 15
  store i32 %2, ptr %exCouponAdjustment_, align 8, !tbaa !140
  %3 = load i8, ptr %endOfMonth.addr, align 1, !tbaa !107, !range !15, !noundef !16
  %loadedv = trunc i8 %3 to i1
  %exCouponEndOfMonth_ = getelementptr inbounds nuw %"class.QuantLib::SubPeriodsLeg", ptr %this1, i32 0, i32 16
  %storedv2 = zext i1 %loadedv to i8
  store i8 %storedv2, ptr %exCouponEndOfMonth_, align 4, !tbaa !141
  ret ptr %this1
}